target datalayout = "e-m:e-p270:32:32-p271:32:32-p272:64:64-i64:64-i128:128-f80:128-n8:16:32:64-S128"
target triple = "x86_64-pc-linux-gnu"

%struct._lv_msgbox_t = type { %struct._lv_obj_t, ptr, ptr, ptr, ptr }
%struct._lv_obj_t = type { ptr, ptr, ptr, ptr, ptr, %struct.lv_area_t, i32, i16, i16 }
%struct.lv_area_t = type { i32, i32, i32, i32 }

@lv_msgbox_footer_class = constant { ptr, ptr, ptr, ptr, ptr, ptr, i32, i32, i8, i8, i8, [5 x i8] } { ptr @lv_obj_class, ptr null, ptr null, ptr null, ptr null, ptr @.str.3, i32 536871012, i32 43, i8 0, i8 4, i8 0, [5 x i8] zeroinitializer }, align 8
@lv_msgbox_footer_button_class = constant { ptr, ptr, ptr, ptr, ptr, ptr, i32, i32, i8, i8, i8, [5 x i8] } { ptr @lv_obj_class, ptr null, ptr null, ptr null, ptr null, ptr @.str.4, i32 1073741823, i32 536871012, i8 4, i8 4, i8 0, [5 x i8] zeroinitializer }, align 8

; Function Attrs: nounwind uwtable
define ptr @lv_msgbox_add_footer_button(ptr noundef %0, ptr noundef %1) #0 {
  %3 = alloca ptr, align 8
  %4 = alloca ptr, align 8
  %5 = alloca ptr, align 8
  %6 = alloca ptr, align 8
  %7 = alloca i32, align 4
  %8 = alloca ptr, align 8
  %9 = alloca ptr, align 8
  store ptr %0, ptr %4, align 8, !tbaa !3
  store ptr %1, ptr %5, align 8, !tbaa !3
  call void @llvm.lifetime.start.p0(i64 8, ptr %6) #4
  %10 = load ptr, ptr %4, align 8, !tbaa !3
  store ptr %10, ptr %6, align 8, !tbaa !3
  %11 = load ptr, ptr %6, align 8, !tbaa !3
  %12 = getelementptr inbounds nuw %struct._lv_msgbox_t, ptr %11, i32 0, i32 3
  %13 = load ptr, ptr %12, align 8, !tbaa !19
  %14 = icmp eq ptr %13, null
  br i1 %14, label %15, label %50

15:                                               ; preds = %2
  %16 = load ptr, ptr %4, align 8, !tbaa !3
  %17 = call ptr @lv_obj_class_create_obj(ptr noundef @lv_msgbox_footer_class, ptr noundef %16)
  %18 = load ptr, ptr %6, align 8, !tbaa !3
  %19 = getelementptr inbounds nuw %struct._lv_msgbox_t, ptr %18, i32 0, i32 3
  store ptr %17, ptr %19, align 8, !tbaa !19
  br label %20

20:                                               ; preds = %15
  %21 = load ptr, ptr %4, align 8, !tbaa !3
  %22 = icmp ne ptr %21, null
  br i1 %22, label %29, label %23

23:                                               ; preds = %20
  br label %24

24:                                               ; preds = %23
  br label %25

25:                                               ; preds = %24
  br label %26

26:                                               ; preds = %25
  br label %27

27:                                               ; preds = %28, %26
  br label %28

28:                                               ; preds = %27
  br label %27

29:                                               ; preds = %20
  br label %30

30:                                               ; preds = %29
  br label %31

31:                                               ; preds = %30
  %32 = load ptr, ptr %6, align 8, !tbaa !3
  %33 = getelementptr inbounds nuw %struct._lv_msgbox_t, ptr %32, i32 0, i32 3
  %34 = load ptr, ptr %33, align 8, !tbaa !19
  %35 = icmp eq ptr %34, null
  br i1 %35, label %36, label %37

36:                                               ; preds = %31
  store ptr null, ptr %3, align 8
  store i32 1, ptr %7, align 4
  br label %84

37:                                               ; preds = %31
  %38 = load ptr, ptr %6, align 8, !tbaa !3
  %39 = getelementptr inbounds nuw %struct._lv_msgbox_t, ptr %38, i32 0, i32 3
  %40 = load ptr, ptr %39, align 8, !tbaa !19
  call void @lv_obj_class_init_obj(ptr noundef %40)
  %41 = load ptr, ptr %6, align 8, !tbaa !3
  %42 = getelementptr inbounds nuw %struct._lv_msgbox_t, ptr %41, i32 0, i32 3
  %43 = load ptr, ptr %42, align 8, !tbaa !19
  call void @lv_obj_set_flex_flow(ptr noundef %43, i32 noundef 0)
  %44 = load ptr, ptr %6, align 8, !tbaa !3
  %45 = getelementptr inbounds nuw %struct._lv_msgbox_t, ptr %44, i32 0, i32 3
  %46 = load ptr, ptr %45, align 8, !tbaa !19
  call void @lv_obj_set_flex_align(ptr noundef %46, i32 noundef 3, i32 noundef 2, i32 noundef 2)
  %47 = load ptr, ptr %6, align 8, !tbaa !3
  %48 = getelementptr inbounds nuw %struct._lv_msgbox_t, ptr %47, i32 0, i32 3
  %49 = load ptr, ptr %48, align 8, !tbaa !19
  call void @lv_obj_remove_flag(ptr noundef %49, i32 noundef 16)
  br label %50

50:                                               ; preds = %37, %2
  call void @llvm.lifetime.start.p0(i64 8, ptr %8) #4
  %51 = load ptr, ptr %6, align 8, !tbaa !3
  %52 = getelementptr inbounds nuw %struct._lv_msgbox_t, ptr %51, i32 0, i32 3
  %53 = load ptr, ptr %52, align 8, !tbaa !19
  %54 = call ptr @lv_obj_class_create_obj(ptr noundef @lv_msgbox_footer_button_class, ptr noundef %53)
  store ptr %54, ptr %8, align 8, !tbaa !3
  br label %55

55:                                               ; preds = %50
  %56 = load ptr, ptr %4, align 8, !tbaa !3
  %57 = icmp ne ptr %56, null
  br i1 %57, label %64, label %58

58:                                               ; preds = %55
  br label %59

59:                                               ; preds = %58
  br label %60

60:                                               ; preds = %59
  br label %61

61:                                               ; preds = %60
  br label %62

62:                                               ; preds = %63, %61
  br label %63

63:                                               ; preds = %62
  br label %62

64:                                               ; preds = %55
  br label %65

65:                                               ; preds = %64
  br label %66

66:                                               ; preds = %65
  %67 = load ptr, ptr %8, align 8, !tbaa !3
  %68 = icmp eq ptr %67, null
  br i1 %68, label %69, label %70

69:                                               ; preds = %66
  store ptr null, ptr %3, align 8
  store i32 1, ptr %7, align 4
  br label %83

70:                                               ; preds = %66
  %71 = load ptr, ptr %8, align 8, !tbaa !3
  call void @lv_obj_class_init_obj(ptr noundef %71)
  %72 = load ptr, ptr %8, align 8, !tbaa !3
  call void @lv_obj_remove_flag(ptr noundef %72, i32 noundef 16)
  %73 = load ptr, ptr %5, align 8, !tbaa !3
  %74 = icmp ne ptr %73, null
  br i1 %74, label %75, label %81

75:                                               ; preds = %70
  call void @llvm.lifetime.start.p0(i64 8, ptr %9) #4
  %76 = load ptr, ptr %8, align 8, !tbaa !3
  %77 = call ptr @lv_label_create(ptr noundef %76)
  store ptr %77, ptr %9, align 8, !tbaa !3
  %78 = load ptr, ptr %9, align 8, !tbaa !3
  %79 = load ptr, ptr %5, align 8, !tbaa !3
  call void @lv_label_set_text(ptr noundef %78, ptr noundef %79)
  %80 = load ptr, ptr %9, align 8, !tbaa !3
  call void @lv_obj_align(ptr noundef %80, i32 noundef 9, i32 noundef 0, i32 noundef 0)
  call void @llvm.lifetime.end.p0(i64 8, ptr %9) #4
  br label %81

81:                                               ; preds = %75, %70
  %82 = load ptr, ptr %8, align 8, !tbaa !3
  store ptr %82, ptr %3, align 8
  store i32 1, ptr %7, align 4
  br label %83

83:                                               ; preds = %81, %69
  call void @llvm.lifetime.end.p0(i64 8, ptr %8) #4
  br label %84

84:                                               ; preds = %83, %36
  call void @llvm.lifetime.end.p0(i64 8, ptr %6) #4
  %85 = load ptr, ptr %3, align 8
  ret ptr %85
}