; Function Attrs: nounwind uwtable
define ptr @lv_msgbox_add_footer_button(ptr noundef %0, ptr noundef %1) local_unnamed_addr #0 {
  %3 = getelementptr inbounds nuw i8, ptr %0, i64 80
  %4 = load ptr, ptr %3, align 8, !tbaa !14
  %5 = icmp eq ptr %4, null
  br i1 %5, label %6, label %13

6:                                                ; preds = %2
  %7 = tail call ptr @lv_obj_class_create_obj(ptr noundef nonnull @lv_msgbox_footer_class, ptr noundef nonnull %0) #3
  store ptr %7, ptr %3, align 8, !tbaa !14
  %8 = icmp eq ptr %7, null
  br i1 %8, label %20, label %9

9:                                                ; preds = %6
  tail call void @lv_obj_class_init_obj(ptr noundef nonnull %7) #3
  %10 = load ptr, ptr %3, align 8, !tbaa !14
  tail call void @lv_obj_set_flex_flow(ptr noundef %10, i32 noundef 0) #3
  %11 = load ptr, ptr %3, align 8, !tbaa !14
  tail call void @lv_obj_set_flex_align(ptr noundef %11, i32 noundef 3, i32 noundef 2, i32 noundef 2) #3
  %12 = load ptr, ptr %3, align 8, !tbaa !14
  tail call void @lv_obj_remove_flag(ptr noundef %12, i32 noundef 16) #3
  %.pre = load ptr, ptr %3, align 8, !tbaa !14
  br label %13

13:                                               ; preds = %2, %9
  %14 = phi ptr [ %4, %2 ], [ %.pre, %9 ]
  %15 = tail call ptr @lv_obj_class_create_obj(ptr noundef nonnull @lv_msgbox_footer_button_class, ptr noundef %14) #3
  %16 = icmp eq ptr %15, null
  br i1 %16, label %20, label %17

17:                                               ; preds = %13
  tail call void @lv_obj_class_init_obj(ptr noundef nonnull %15) #3
  tail call void @lv_obj_remove_flag(ptr noundef nonnull %15, i32 noundef 16) #3
  %.not26 = icmp eq ptr %1, null
  br i1 %.not26, label %20, label %18

18:                                               ; preds = %17
  %19 = tail call ptr @lv_label_create(ptr noundef nonnull %15) #3
  tail call void @lv_label_set_text(ptr noundef %19, ptr noundef nonnull %1) #3
  tail call void @lv_obj_align(ptr noundef %19, i32 noundef 9, i32 noundef 0, i32 noundef 0) #3
  br label %20

20:                                               ; preds = %13, %18, %17, %6
  %.0 = phi ptr [ null, %6 ], [ null, %13 ], [ %15, %18 ], [ %15, %17 ]
  ret ptr %.0
}